target datalayout = "e-m:e-p270:32:32-p271:32:32-p272:64:64-i64:64-i128:128-f80:128-n8:16:32:64-S128"
target triple = "x86_64-pc-linux-gnu"

%struct.AVFormatContext = type { ptr, ptr, ptr, ptr, ptr, i32, i32, ptr, i32, ptr, i32, ptr, ptr, i64, i64, i64, i32, i32, i32, i64, i64, ptr, i32, i32, ptr, i32, i32, i32, i32, ptr, i64, i32, i32, %struct.AVIOInterruptCB, i32, i32, i32, i32, i64, i32, i32, i32, i32, i32, i32, i32, i32, i32, i32, i32, i32, i64, i32, i32, i32, i32, i32, ptr, ptr, ptr, ptr, i32, ptr, ptr, ptr, ptr, i32, ptr, ptr, i64, ptr, ptr, ptr, i64 }
%struct.AVIOInterruptCB = type { ptr, ptr }
%struct.AVPacket = type { ptr, i64, i64, ptr, i32, i32, i32, ptr, i32, i64, i64, ptr, ptr, %struct.AVRational }
%struct.AVRational = type { i32, i32 }
%struct.VideoMuxData = type { ptr, i32, i32, i32, [4 x [1024 x i8]], [4 x [1024 x i8]], i32, i32, i32, ptr, i32, ptr }

; Function Attrs: nounwind uwtable
define internal i32 @write_packet_pipe(ptr noundef %0, ptr noundef %1) #0 {
  %3 = alloca i32, align 4
  %4 = alloca ptr, align 8
  %5 = alloca ptr, align 8
  %6 = alloca ptr, align 8
  %7 = alloca i32, align 4
  %8 = alloca i32, align 4
  store ptr %0, ptr %4, align 8, !tbaa !4
  store ptr %1, ptr %5, align 8, !tbaa !55
  call void @llvm.lifetime.start.p0(i64 8, ptr %6) #8
  %9 = load ptr, ptr %4, align 8, !tbaa !4
  %10 = getelementptr inbounds nuw %struct.AVFormatContext, ptr %9, i32 0, i32 3
  %11 = load ptr, ptr %10, align 8, !tbaa !9
  store ptr %11, ptr %6, align 8, !tbaa !26
  %12 = load ptr, ptr %6, align 8, !tbaa !26
  %13 = getelementptr inbounds nuw %struct.VideoMuxData, ptr %12, i32 0, i32 9
  %14 = load ptr, ptr %13, align 8, !tbaa !44
  %15 = icmp ne ptr %14, null
  br i1 %15, label %16, label %31

16:                                               ; preds = %2
  call void @llvm.lifetime.start.p0(i64 4, ptr %7) #8
  %17 = load ptr, ptr %4, align 8, !tbaa !4
  %18 = load ptr, ptr %4, align 8, !tbaa !4
  %19 = getelementptr inbounds nuw %struct.AVFormatContext, ptr %18, i32 0, i32 4
  %20 = load ptr, ptr %19, align 8, !tbaa !87
  %21 = load ptr, ptr %5, align 8, !tbaa !55
  %22 = call i32 @write_muxed_file(ptr noundef %17, ptr noundef %20, ptr noundef %21)
  store i32 %22, ptr %7, align 4, !tbaa !59
  %23 = load i32, ptr %7, align 4, !tbaa !59
  %24 = icmp slt i32 %23, 0
  br i1 %24, label %25, label %27

25:                                               ; preds = %16
  %26 = load i32, ptr %7, align 4, !tbaa !59
  store i32 %26, ptr %3, align 4
  store i32 1, ptr %8, align 4
  br label %28

27:                                               ; preds = %16
  store i32 0, ptr %8, align 4
  br label %28

28:                                               ; preds = %27, %25
  call void @llvm.lifetime.end.p0(i64 4, ptr %7) #8
  %29 = load i32, ptr %8, align 4
  switch i32 %29, label %46 [
    i32 0, label %30
  ]

30:                                               ; preds = %28
  br label %41

31:                                               ; preds = %2
  %32 = load ptr, ptr %4, align 8, !tbaa !4
  %33 = getelementptr inbounds nuw %struct.AVFormatContext, ptr %32, i32 0, i32 4
  %34 = load ptr, ptr %33, align 8, !tbaa !87
  %35 = load ptr, ptr %5, align 8, !tbaa !55
  %36 = getelementptr inbounds nuw %struct.AVPacket, ptr %35, i32 0, i32 3
  %37 = load ptr, ptr %36, align 8, !tbaa !79
  %38 = load ptr, ptr %5, align 8, !tbaa !55
  %39 = getelementptr inbounds nuw %struct.AVPacket, ptr %38, i32 0, i32 4
  %40 = load i32, ptr %39, align 8, !tbaa !81
  call void @avio_write(ptr noundef %34, ptr noundef %37, i32 noundef %40)
  br label %41

41:                                               ; preds = %31, %30
  %42 = load ptr, ptr %6, align 8, !tbaa !26
  %43 = getelementptr inbounds nuw %struct.VideoMuxData, ptr %42, i32 0, i32 2
  %44 = load i32, ptr %43, align 4, !tbaa !54
  %45 = add nsw i32 %44, 1
  store i32 %45, ptr %43, align 4, !tbaa !54
  store i32 0, ptr %3, align 4
  store i32 1, ptr %8, align 4
  br label %46

46:                                               ; preds = %41, %28
  call void @llvm.lifetime.end.p0(i64 8, ptr %6) #8
  %47 = load i32, ptr %3, align 4
  ret i32 %47
}