; Function Attrs: nounwind uwtable
define internal range(i32 -2147483648, 1) i32 @write_packet_pipe(ptr noundef readonly captures(none) %0, ptr noundef %1) #0 {
  %3 = getelementptr inbounds nuw i8, ptr %0, i64 24
  %4 = load ptr, ptr %3, align 8, !tbaa !4
  %5 = getelementptr inbounds nuw i8, ptr %4, i64 8224
  %6 = load ptr, ptr %5, align 8, !tbaa !38
  %.not = icmp eq ptr %6, null
  %7 = getelementptr inbounds nuw i8, ptr %0, i64 32
  %8 = load ptr, ptr %7, align 8, !tbaa !74
  br i1 %.not, label %12, label %9

9:                                                ; preds = %2
  %10 = tail call fastcc i32 @write_muxed_file(ptr noundef nonnull %0, ptr noundef %8, ptr noundef %1)
  %11 = icmp sgt i32 %10, -1
  br i1 %11, label %17, label %21

12:                                               ; preds = %2
  %13 = getelementptr inbounds nuw i8, ptr %1, i64 24
  %14 = load ptr, ptr %13, align 8, !tbaa !66
  %15 = getelementptr inbounds nuw i8, ptr %1, i64 32
  %16 = load i32, ptr %15, align 8, !tbaa !68
  tail call void @avio_write(ptr noundef %8, ptr noundef %14, i32 noundef %16) #8
  br label %17

17:                                               ; preds = %9, %12
  %18 = getelementptr inbounds nuw i8, ptr %4, i64 12
  %19 = load i32, ptr %18, align 4, !tbaa !47
  %20 = add nsw i32 %19, 1
  store i32 %20, ptr %18, align 4, !tbaa !47
  br label %21

21:                                               ; preds = %9, %17
  %.1 = phi i32 [ 0, %17 ], [ %10, %9 ]
  ret i32 %.1
}